; Function Attrs: null_pointer_is_valid sspstrong uwtable
define hidden range(i32 -268435456, 268435456) i32 @dissect_ngap_SourceNGRANNode_ToTargetNGRANNode_TransparentContainer_PDU(ptr noundef %0, ptr noundef %1, ptr noundef %2, ptr readnone captures(none) %3) local_unnamed_addr #0 {
  %5 = alloca %struct._asn1_ctx_t, align 8
  call void @llvm.lifetime.start.p0(i64 208, ptr nonnull %5) #12
  call void @asn1_ctx_init(ptr noundef nonnull %5, i32 noundef 1, i1 noundef zeroext true, ptr noundef %1)
  %6 = load i32, ptr @hf_ngap_ngap_SourceNGRANNode_ToTargetNGRANNode_TransparentContainer_PDU, align 4
  %7 = getelementptr inbounds nuw i8, ptr %5, i64 16
  %8 = load ptr, ptr %7, align 8
  %9 = getelementptr inbounds nuw i8, ptr %8, i64 408
  %10 = load ptr, ptr %9, align 8
  %11 = load i32, ptr @proto_ngap, align 4
  %12 = call ptr @p_get_proto_data(ptr noundef %10, ptr noundef %8, i32 noundef %11, i32 noundef 0)
  %.not.i.i = icmp eq ptr %12, null
  br i1 %.not.i.i, label %13, label %dissect_ngap_SourceNGRANNode_ToTargetNGRANNode_TransparentContainer.exit

13:                                               ; preds = %4
  %14 = load ptr, ptr %9, align 8
  %15 = call noalias dereferenceable_or_null(72) ptr @wmem_alloc0(ptr noundef %14, i64 noundef 72) #13
  %16 = getelementptr inbounds nuw i8, ptr %15, i64 24
  store i32 -1, ptr %16, align 8
  %17 = getelementptr inbounds nuw i8, ptr %15, i64 56
  store i8 -1, ptr %17, align 8
  %18 = load ptr, ptr %9, align 8
  %19 = load i32, ptr @proto_ngap, align 4
  call void @p_add_proto_data(ptr noundef %18, ptr noundef %8, i32 noundef %19, i32 noundef 0, ptr noundef %15)
  br label %dissect_ngap_SourceNGRANNode_ToTargetNGRANNode_TransparentContainer.exit

dissect_ngap_SourceNGRANNode_ToTargetNGRANNode_TransparentContainer.exit: ; preds = %4, %13
  %.0.i.i = phi ptr [ %12, %4 ], [ %15, %13 ]
  %20 = getelementptr inbounds nuw i8, ptr %.0.i.i, i64 29
  store i8 1, ptr %20, align 1
  %21 = load i32, ptr @ett_ngap_SourceNGRANNode_ToTargetNGRANNode_TransparentContainer, align 4
  %22 = call i32 @dissect_per_sequence(ptr noundef %0, i32 noundef 0, ptr noundef nonnull %5, ptr noundef %2, i32 noundef %6, i32 noundef %21, ptr noundef nonnull @SourceNGRANNode_ToTargetNGRANNode_TransparentContainer_sequence)
  %23 = add i32 %22, 7
  %24 = ashr i32 %23, 3
  call void @llvm.lifetime.end.p0(i64 208, ptr nonnull %5) #12
  ret i32 %24
}